target datalayout = "e-m:e-p270:32:32-p271:32:32-p272:64:64-i64:64-i128:128-f80:128-n8:16:32:64-S128"
target triple = "x86_64-pc-linux-gnu"

%struct.evthread_lock_callbacks = type { i32, i32, ptr, ptr, ptr, ptr }
%struct.ev_token_bucket = type { i64, i64, i32 }
%struct.ev_token_bucket_cfg = type { i64, i64, i64, i64, %struct.timeval, i32 }
%struct.timeval = type { i64, i64 }
%struct.bufferevent_private = type { %struct.bufferevent, ptr, i8, i16, i16, i16, i32, i32, %struct.event_callback, i32, i32, ptr, i64, i64, ptr, %union.anon.7, ptr }
%struct.bufferevent = type { ptr, ptr, %struct.event, %struct.event, ptr, ptr, %struct.event_watermark, %struct.event_watermark, ptr, ptr, ptr, ptr, %struct.timeval, %struct.timeval, i16 }
%struct.event = type { %struct.event_callback, %union.anon.0, i32, i16, i16, ptr, %union.anon.2, %struct.timeval }
%union.anon.0 = type { %struct.anon.1 }
%struct.anon.1 = type { ptr, ptr }
%union.anon.2 = type { %struct.anon.3 }
%struct.anon.3 = type { %struct.anon.4, %struct.timeval }
%struct.anon.4 = type { ptr, ptr }
%struct.event_watermark = type { i64, i64 }
%struct.event_callback = type { %struct.anon, i16, i8, i8, %union.anon, ptr }
%struct.anon = type { ptr, ptr }
%union.anon = type { ptr }
%union.anon.7 = type { %struct.sockaddr_in6 }
%struct.sockaddr_in6 = type { i16, i16, i32, %struct.in6_addr, i32 }
%struct.in6_addr = type { %union.anon.8 }
%union.anon.8 = type { [4 x i32] }
%struct.bufferevent_rate_limit = type { %struct.anon.9, ptr, %struct.ev_token_bucket, ptr, %struct.event }
%struct.anon.9 = type { ptr, ptr }
%struct.bufferevent_rate_limit_group = type { %struct.rlim_group_member_list, %struct.ev_token_bucket, %struct.ev_token_bucket_cfg, i8, i64, i64, i32, i64, i64, %struct.event, %struct.evutil_weakrand_state, ptr }
%struct.rlim_group_member_list = type { ptr }
%struct.evutil_weakrand_state = type { i32 }

@evthread_lock_fns_ = external global %struct.evthread_lock_callbacks, align 8

; Function Attrs: nounwind uwtable
define hidden i32 @bufferevent_remove_from_rate_limit_group_internal_(ptr noundef %0, i32 noundef %1) #0 {
  %3 = alloca ptr, align 8
  %4 = alloca i32, align 4
  %5 = alloca ptr, align 8
  %6 = alloca ptr, align 8
  %7 = alloca ptr, align 8
  %8 = alloca ptr, align 8
  store ptr %0, ptr %3, align 8
  store i32 %1, ptr %4, align 4
  call void @llvm.lifetime.start.p0(i64 8, ptr %5) #5
  %9 = load ptr, ptr %3, align 8
  %10 = getelementptr inbounds i8, ptr %9, i64 0
  store ptr %10, ptr %5, align 8
  br label %11

11:                                               ; preds = %2
  call void @llvm.lifetime.start.p0(i64 8, ptr %6) #5
  %12 = load ptr, ptr %3, align 8
  %13 = getelementptr inbounds i8, ptr %12, i64 0
  store ptr %13, ptr %6, align 8
  br label %14

14:                                               ; preds = %11
  %15 = load ptr, ptr %6, align 8
  %16 = getelementptr inbounds nuw %struct.bufferevent_private, ptr %15, i32 0, i32 11
  %17 = load ptr, ptr %16, align 8
  %18 = icmp ne ptr %17, null
  br i1 %18, label %19, label %25

19:                                               ; preds = %14
  %20 = load ptr, ptr getelementptr inbounds nuw (%struct.evthread_lock_callbacks, ptr @evthread_lock_fns_, i32 0, i32 4), align 8
  %21 = load ptr, ptr %6, align 8
  %22 = getelementptr inbounds nuw %struct.bufferevent_private, ptr %21, i32 0, i32 11
  %23 = load ptr, ptr %22, align 8
  %24 = call i32 %20(i32 noundef 0, ptr noundef %23)
  br label %25

25:                                               ; preds = %19, %14
  br label %26

26:                                               ; preds = %25
  br label %27

27:                                               ; preds = %26
  call void @llvm.lifetime.end.p0(i64 8, ptr %6) #5
  br label %28

28:                                               ; preds = %27
  br label %29

29:                                               ; preds = %28
  %30 = load ptr, ptr %5, align 8
  %31 = getelementptr inbounds nuw %struct.bufferevent_private, ptr %30, i32 0, i32 14
  %32 = load ptr, ptr %31, align 8
  %33 = icmp ne ptr %32, null
  br i1 %33, label %34, label %123

34:                                               ; preds = %29
  %35 = load ptr, ptr %5, align 8
  %36 = getelementptr inbounds nuw %struct.bufferevent_private, ptr %35, i32 0, i32 14
  %37 = load ptr, ptr %36, align 8
  %38 = getelementptr inbounds nuw %struct.bufferevent_rate_limit, ptr %37, i32 0, i32 1
  %39 = load ptr, ptr %38, align 8
  %40 = icmp ne ptr %39, null
  br i1 %40, label %41, label %123

41:                                               ; preds = %34
  call void @llvm.lifetime.start.p0(i64 8, ptr %7) #5
  %42 = load ptr, ptr %5, align 8
  %43 = getelementptr inbounds nuw %struct.bufferevent_private, ptr %42, i32 0, i32 14
  %44 = load ptr, ptr %43, align 8
  %45 = getelementptr inbounds nuw %struct.bufferevent_rate_limit, ptr %44, i32 0, i32 1
  %46 = load ptr, ptr %45, align 8
  store ptr %46, ptr %7, align 8
  br label %47

47:                                               ; preds = %41
  %48 = load ptr, ptr %7, align 8
  %49 = getelementptr inbounds nuw %struct.bufferevent_rate_limit_group, ptr %48, i32 0, i32 11
  %50 = load ptr, ptr %49, align 8
  %51 = icmp ne ptr %50, null
  br i1 %51, label %52, label %58

52:                                               ; preds = %47
  %53 = load ptr, ptr getelementptr inbounds nuw (%struct.evthread_lock_callbacks, ptr @evthread_lock_fns_, i32 0, i32 4), align 8
  %54 = load ptr, ptr %7, align 8
  %55 = getelementptr inbounds nuw %struct.bufferevent_rate_limit_group, ptr %54, i32 0, i32 11
  %56 = load ptr, ptr %55, align 8
  %57 = call i32 %53(i32 noundef 0, ptr noundef %56)
  br label %58

58:                                               ; preds = %52, %47
  br label %59

59:                                               ; preds = %58
  br label %60

60:                                               ; preds = %59
  %61 = load ptr, ptr %5, align 8
  %62 = getelementptr inbounds nuw %struct.bufferevent_private, ptr %61, i32 0, i32 14
  %63 = load ptr, ptr %62, align 8
  %64 = getelementptr inbounds nuw %struct.bufferevent_rate_limit, ptr %63, i32 0, i32 1
  store ptr null, ptr %64, align 8
  %65 = load ptr, ptr %7, align 8
  %66 = getelementptr inbounds nuw %struct.bufferevent_rate_limit_group, ptr %65, i32 0, i32 6
  %67 = load i32, ptr %66, align 8
  %68 = add nsw i32 %67, -1
  store i32 %68, ptr %66, align 8
  br label %69

69:                                               ; preds = %60
  %70 = load ptr, ptr %5, align 8
  %71 = getelementptr inbounds nuw %struct.bufferevent_private, ptr %70, i32 0, i32 14
  %72 = load ptr, ptr %71, align 8
  %73 = getelementptr inbounds nuw %struct.bufferevent_rate_limit, ptr %72, i32 0, i32 0
  %74 = getelementptr inbounds nuw %struct.anon.9, ptr %73, i32 0, i32 0
  %75 = load ptr, ptr %74, align 8
  %76 = icmp ne ptr %75, null
  br i1 %76, label %77, label %94

77:                                               ; preds = %69
  %78 = load ptr, ptr %5, align 8
  %79 = getelementptr inbounds nuw %struct.bufferevent_private, ptr %78, i32 0, i32 14
  %80 = load ptr, ptr %79, align 8
  %81 = getelementptr inbounds nuw %struct.bufferevent_rate_limit, ptr %80, i32 0, i32 0
  %82 = getelementptr inbounds nuw %struct.anon.9, ptr %81, i32 0, i32 1
  %83 = load ptr, ptr %82, align 8
  %84 = load ptr, ptr %5, align 8
  %85 = getelementptr inbounds nuw %struct.bufferevent_private, ptr %84, i32 0, i32 14
  %86 = load ptr, ptr %85, align 8
  %87 = getelementptr inbounds nuw %struct.bufferevent_rate_limit, ptr %86, i32 0, i32 0
  %88 = getelementptr inbounds nuw %struct.anon.9, ptr %87, i32 0, i32 0
  %89 = load ptr, ptr %88, align 8
  %90 = getelementptr inbounds nuw %struct.bufferevent_private, ptr %89, i32 0, i32 14
  %91 = load ptr, ptr %90, align 8
  %92 = getelementptr inbounds nuw %struct.bufferevent_rate_limit, ptr %91, i32 0, i32 0
  %93 = getelementptr inbounds nuw %struct.anon.9, ptr %92, i32 0, i32 1
  store ptr %83, ptr %93, align 8
  br label %94

94:                                               ; preds = %77, %69
  %95 = load ptr, ptr %5, align 8
  %96 = getelementptr inbounds nuw %struct.bufferevent_private, ptr %95, i32 0, i32 14
  %97 = load ptr, ptr %96, align 8
  %98 = getelementptr inbounds nuw %struct.bufferevent_rate_limit, ptr %97, i32 0, i32 0
  %99 = getelementptr inbounds nuw %struct.anon.9, ptr %98, i32 0, i32 0
  %100 = load ptr, ptr %99, align 8
  %101 = load ptr, ptr %5, align 8
  %102 = getelementptr inbounds nuw %struct.bufferevent_private, ptr %101, i32 0, i32 14
  %103 = load ptr, ptr %102, align 8
  %104 = getelementptr inbounds nuw %struct.bufferevent_rate_limit, ptr %103, i32 0, i32 0
  %105 = getelementptr inbounds nuw %struct.anon.9, ptr %104, i32 0, i32 1
  %106 = load ptr, ptr %105, align 8
  store ptr %100, ptr %106, align 8
  br label %107

107:                                              ; preds = %94
  br label %108

108:                                              ; preds = %107
  br label %109

109:                                              ; preds = %108
  %110 = load ptr, ptr %7, align 8
  %111 = getelementptr inbounds nuw %struct.bufferevent_rate_limit_group, ptr %110, i32 0, i32 11
  %112 = load ptr, ptr %111, align 8
  %113 = icmp ne ptr %112, null
  br i1 %113, label %114, label %120

114:                                              ; preds = %109
  %115 = load ptr, ptr getelementptr inbounds nuw (%struct.evthread_lock_callbacks, ptr @evthread_lock_fns_, i32 0, i32 5), align 8
  %116 = load ptr, ptr %7, align 8
  %117 = getelementptr inbounds nuw %struct.bufferevent_rate_limit_group, ptr %116, i32 0, i32 11
  %118 = load ptr, ptr %117, align 8
  %119 = call i32 %115(i32 noundef 0, ptr noundef %118)
  br label %120

120:                                              ; preds = %114, %109
  br label %121

121:                                              ; preds = %120
  br label %122

122:                                              ; preds = %121
  call void @llvm.lifetime.end.p0(i64 8, ptr %7) #5
  br label %123

123:                                              ; preds = %122, %34, %29
  %124 = load i32, ptr %4, align 4
  %125 = icmp ne i32 %124, 0
  br i1 %125, label %126, label %129

126:                                              ; preds = %123
  %127 = load ptr, ptr %3, align 8
  call void @bufferevent_unsuspend_read_(ptr noundef %127, i16 noundef zeroext 4)
  %128 = load ptr, ptr %3, align 8
  call void @bufferevent_unsuspend_write_(ptr noundef %128, i16 noundef zeroext 4)
  br label %129

129:                                              ; preds = %126, %123
  br label %130

130:                                              ; preds = %129
  call void @llvm.lifetime.start.p0(i64 8, ptr %8) #5
  %131 = load ptr, ptr %3, align 8
  %132 = getelementptr inbounds i8, ptr %131, i64 0
  store ptr %132, ptr %8, align 8
  br label %133

133:                                              ; preds = %130
  %134 = load ptr, ptr %8, align 8
  %135 = getelementptr inbounds nuw %struct.bufferevent_private, ptr %134, i32 0, i32 11
  %136 = load ptr, ptr %135, align 8
  %137 = icmp ne ptr %136, null
  br i1 %137, label %138, label %144

138:                                              ; preds = %133
  %139 = load ptr, ptr getelementptr inbounds nuw (%struct.evthread_lock_callbacks, ptr @evthread_lock_fns_, i32 0, i32 5), align 8
  %140 = load ptr, ptr %8, align 8
  %141 = getelementptr inbounds nuw %struct.bufferevent_private, ptr %140, i32 0, i32 11
  %142 = load ptr, ptr %141, align 8
  %143 = call i32 %139(i32 noundef 0, ptr noundef %142)
  br label %144

144:                                              ; preds = %138, %133
  br label %145

145:                                              ; preds = %144
  br label %146

146:                                              ; preds = %145
  call void @llvm.lifetime.end.p0(i64 8, ptr %8) #5
  br label %147

147:                                              ; preds = %146
  br label %148

148:                                              ; preds = %147
  call void @llvm.lifetime.end.p0(i64 8, ptr %5) #5
  ret i32 0
}