; Function Attrs: nounwind uwtable
define hidden noundef i32 @bufferevent_remove_from_rate_limit_group_internal_(ptr noundef %0, i32 noundef %1) local_unnamed_addr #3 {
  %3 = getelementptr inbounds nuw i8, ptr %0, i64 448
  %4 = load ptr, ptr %3, align 8
  %.not = icmp eq ptr %4, null
  br i1 %.not, label %8, label %5

5:                                                ; preds = %2
  %6 = load ptr, ptr getelementptr inbounds nuw (i8, ptr @evthread_lock_fns_, i64 24), align 8
  %7 = tail call i32 %6(i32 noundef 0, ptr noundef nonnull %4) #10
  br label %8

8:                                                ; preds = %5, %2
  %9 = getelementptr inbounds nuw i8, ptr %0, i64 472
  %10 = load ptr, ptr %9, align 8
  %.not29 = icmp eq ptr %10, null
  br i1 %.not29, label %43, label %11

11:                                               ; preds = %8
  %12 = getelementptr inbounds nuw i8, ptr %10, i64 16
  %13 = load ptr, ptr %12, align 8
  %.not30 = icmp eq ptr %13, null
  br i1 %.not30, label %43, label %14

14:                                               ; preds = %11
  %15 = getelementptr inbounds nuw i8, ptr %13, i64 264
  %16 = load ptr, ptr %15, align 8
  %.not31 = icmp eq ptr %16, null
  br i1 %.not31, label %20, label %17

17:                                               ; preds = %14
  %18 = load ptr, ptr getelementptr inbounds nuw (i8, ptr @evthread_lock_fns_, i64 24), align 8
  %19 = tail call i32 %18(i32 noundef 0, ptr noundef nonnull %16) #10
  %.pre = load ptr, ptr %9, align 8
  br label %20

20:                                               ; preds = %17, %14
  %21 = phi ptr [ %.pre, %17 ], [ %10, %14 ]
  %22 = getelementptr inbounds nuw i8, ptr %21, i64 16
  store ptr null, ptr %22, align 8
  %23 = getelementptr inbounds nuw i8, ptr %13, i64 112
  %24 = load i32, ptr %23, align 8
  %25 = add nsw i32 %24, -1
  store i32 %25, ptr %23, align 8
  %26 = load ptr, ptr %9, align 8
  %27 = load ptr, ptr %26, align 8
  %.not32 = icmp eq ptr %27, null
  br i1 %.not32, label %34, label %28

28:                                               ; preds = %20
  %29 = getelementptr inbounds nuw i8, ptr %26, i64 8
  %30 = load ptr, ptr %29, align 8
  %31 = getelementptr inbounds nuw i8, ptr %27, i64 472
  %32 = load ptr, ptr %31, align 8
  %33 = getelementptr inbounds nuw i8, ptr %32, i64 8
  store ptr %30, ptr %33, align 8
  %.pre36 = load ptr, ptr %9, align 8
  %.pre37 = load ptr, ptr %.pre36, align 8
  br label %34

34:                                               ; preds = %28, %20
  %35 = phi ptr [ %.pre37, %28 ], [ null, %20 ]
  %36 = phi ptr [ %.pre36, %28 ], [ %26, %20 ]
  %37 = getelementptr inbounds nuw i8, ptr %36, i64 8
  %38 = load ptr, ptr %37, align 8
  store ptr %35, ptr %38, align 8
  %39 = load ptr, ptr %15, align 8
  %.not33 = icmp eq ptr %39, null
  br i1 %.not33, label %43, label %40

40:                                               ; preds = %34
  %41 = load ptr, ptr getelementptr inbounds nuw (i8, ptr @evthread_lock_fns_, i64 32), align 8
  %42 = tail call i32 %41(i32 noundef 0, ptr noundef nonnull %39) #10
  br label %43

43:                                               ; preds = %34, %40, %11, %8
  %.not34 = icmp eq i32 %1, 0
  br i1 %.not34, label %45, label %44

44:                                               ; preds = %43
  tail call void @bufferevent_unsuspend_read_(ptr noundef nonnull %0, i16 noundef zeroext 4) #10
  tail call void @bufferevent_unsuspend_write_(ptr noundef nonnull %0, i16 noundef zeroext 4) #10
  br label %45

45:                                               ; preds = %43, %44
  %46 = load ptr, ptr %3, align 8
  %.not35 = icmp eq ptr %46, null
  br i1 %.not35, label %50, label %47

47:                                               ; preds = %45
  %48 = load ptr, ptr getelementptr inbounds nuw (i8, ptr @evthread_lock_fns_, i64 32), align 8
  %49 = tail call i32 %48(i32 noundef 0, ptr noundef nonnull %46) #10
  br label %50

50:                                               ; preds = %47, %45
  ret i32 0
}